target datalayout = "e-m:e-p270:32:32-p271:32:32-p272:64:64-i64:64-i128:128-f80:128-n8:16:32:64-S128"
target triple = "x86_64-pc-linux-gnu"

%struct.ExplainState = type { ptr, i8, i8, i8, i8, i8, i8, i8, i8, i8, i8, i32, i32, i32, ptr, ptr, ptr, ptr, ptr, ptr, i8, i32, ptr }

@.str.61 = private unnamed_addr constant [11 x i8] c"</explain>\00", align 1
@.str.62 = private unnamed_addr constant [3 x i8] c"\0A]\00", align 1

; Function Attrs: nounwind uwtable
define dso_local void @ExplainEndOutput(ptr noundef %0) #0 {
  %2 = alloca ptr, align 8
  store ptr %0, ptr %2, align 8
  %3 = load ptr, ptr %2, align 8
  %4 = getelementptr inbounds nuw %struct.ExplainState, ptr %3, i32 0, i32 12
  %5 = load i32, ptr %4, align 8
  switch i32 %5, label %35 [
    i32 0, label %35
    i32 1, label %6
    i32 2, label %14
    i32 3, label %28
  ]

6:                                                ; preds = %1
  %7 = load ptr, ptr %2, align 8
  %8 = getelementptr inbounds nuw %struct.ExplainState, ptr %7, i32 0, i32 13
  %9 = load i32, ptr %8, align 4
  %10 = add i32 %9, -1
  store i32 %10, ptr %8, align 4
  %11 = load ptr, ptr %2, align 8
  %12 = getelementptr inbounds nuw %struct.ExplainState, ptr %11, i32 0, i32 0
  %13 = load ptr, ptr %12, align 8
  call void @appendStringInfoString(ptr noundef %13, ptr noundef @.str.61)
  br label %35

14:                                               ; preds = %1
  %15 = load ptr, ptr %2, align 8
  %16 = getelementptr inbounds nuw %struct.ExplainState, ptr %15, i32 0, i32 13
  %17 = load i32, ptr %16, align 4
  %18 = add i32 %17, -1
  store i32 %18, ptr %16, align 4
  %19 = load ptr, ptr %2, align 8
  %20 = getelementptr inbounds nuw %struct.ExplainState, ptr %19, i32 0, i32 0
  %21 = load ptr, ptr %20, align 8
  call void @appendStringInfoString(ptr noundef %21, ptr noundef @.str.62)
  %22 = load ptr, ptr %2, align 8
  %23 = getelementptr inbounds nuw %struct.ExplainState, ptr %22, i32 0, i32 14
  %24 = load ptr, ptr %23, align 8
  %25 = call ptr @list_delete_first(ptr noundef %24)
  %26 = load ptr, ptr %2, align 8
  %27 = getelementptr inbounds nuw %struct.ExplainState, ptr %26, i32 0, i32 14
  store ptr %25, ptr %27, align 8
  br label %35

28:                                               ; preds = %1
  %29 = load ptr, ptr %2, align 8
  %30 = getelementptr inbounds nuw %struct.ExplainState, ptr %29, i32 0, i32 14
  %31 = load ptr, ptr %30, align 8
  %32 = call ptr @list_delete_first(ptr noundef %31)
  %33 = load ptr, ptr %2, align 8
  %34 = getelementptr inbounds nuw %struct.ExplainState, ptr %33, i32 0, i32 14
  store ptr %32, ptr %34, align 8
  br label %35

35:                                               ; preds = %1, %28, %14, %6, %1
  ret void
}