; Function Attrs: nounwind uwtable
define dso_local void @ExplainEndOutput(ptr noundef captures(none) %0) local_unnamed_addr #0 {
  %2 = getelementptr inbounds nuw i8, ptr %0, i64 24
  %3 = load i32, ptr %2, align 8
  switch i32 %3, label %21 [
    i32 3, label %17
    i32 1, label %4
    i32 2, label %9
  ]

4:                                                ; preds = %1
  %5 = getelementptr inbounds nuw i8, ptr %0, i64 28
  %6 = load i32, ptr %5, align 4
  %7 = add i32 %6, -1
  store i32 %7, ptr %5, align 4
  %8 = load ptr, ptr %0, align 8
  tail call void @appendStringInfoString(ptr noundef %8, ptr noundef nonnull @.str.61) #13
  br label %21

9:                                                ; preds = %1
  %10 = getelementptr inbounds nuw i8, ptr %0, i64 28
  %11 = load i32, ptr %10, align 4
  %12 = add i32 %11, -1
  store i32 %12, ptr %10, align 4
  %13 = load ptr, ptr %0, align 8
  tail call void @appendStringInfoString(ptr noundef %13, ptr noundef nonnull @.str.62) #13
  %14 = getelementptr inbounds nuw i8, ptr %0, i64 32
  %15 = load ptr, ptr %14, align 8
  %16 = tail call ptr @list_delete_first(ptr noundef %15) #13
  store ptr %16, ptr %14, align 8
  br label %21

17:                                               ; preds = %1
  %18 = getelementptr inbounds nuw i8, ptr %0, i64 32
  %19 = load ptr, ptr %18, align 8
  %20 = tail call ptr @list_delete_first(ptr noundef %19) #13
  store ptr %20, ptr %18, align 8
  br label %21

21:                                               ; preds = %17, %9, %4, %1
  ret void
}